target datalayout = "e-m:e-p270:32:32-p271:32:32-p272:64:64-i64:64-i128:128-f80:128-n8:16:32:64-S128"
target triple = "x86_64-pc-linux-gnu"

; Function Attrs: nounwind uwtable
define internal i32 @Abc_LitNot(i32 noundef %0) #0 {
  %2 = alloca i32, align 4
  store i32 %0, ptr %2, align 4
  %3 = load i32, ptr %2, align 4
  %4 = xor i32 %3, 1
  ret i32 %4
}

; Function Attrs: nounwind uwtable
define void @Cba_BlastFullAdder(ptr noundef %0, i32 noundef %1, i32 noundef %2, i32 noundef %3, ptr noundef %4, ptr noundef %5) #0 {
  %7 = alloca ptr, align 8
  %8 = alloca i32, align 4
  %9 = alloca i32, align 4
  %10 = alloca i32, align 4
  %11 = alloca ptr, align 8
  %12 = alloca ptr, align 8
  %13 = alloca i32, align 4
  %14 = alloca i32, align 4
  %15 = alloca i32, align 4
  %16 = alloca i32, align 4
  %17 = alloca i32, align 4
  %18 = alloca i32, align 4
  %19 = alloca i32, align 4
  %20 = alloca i32, align 4
  %21 = alloca i32, align 4
  store ptr %0, ptr %7, align 8
  store i32 %1, ptr %8, align 4
  store i32 %2, ptr %9, align 4
  store i32 %3, ptr %10, align 4
  store ptr %4, ptr %11, align 8
  store ptr %5, ptr %12, align 8
  store i32 0, ptr %13, align 4
  %22 = load i32, ptr %13, align 4
  %23 = icmp ne i32 %22, 0
  br i1 %23, label %24, label %47

24:                                               ; preds = %6
  %25 = load ptr, ptr %7, align 8
  %26 = load i32, ptr %8, align 4
  %27 = load i32, ptr %9, align 4
  %28 = call i32 @Gia_ManHashXor(ptr noundef %25, i32 noundef %26, i32 noundef %27)
  store i32 %28, ptr %14, align 4
  %29 = load ptr, ptr %7, align 8
  %30 = load i32, ptr %8, align 4
  %31 = load i32, ptr %9, align 4
  %32 = call i32 @Gia_ManHashAnd(ptr noundef %29, i32 noundef %30, i32 noundef %31)
  store i32 %32, ptr %15, align 4
  %33 = load ptr, ptr %7, align 8
  %34 = load i32, ptr %10, align 4
  %35 = load i32, ptr %14, align 4
  %36 = call i32 @Gia_ManHashAnd(ptr noundef %33, i32 noundef %34, i32 noundef %35)
  store i32 %36, ptr %16, align 4
  %37 = load ptr, ptr %7, align 8
  %38 = load i32, ptr %10, align 4
  %39 = load i32, ptr %14, align 4
  %40 = call i32 @Gia_ManHashXor(ptr noundef %37, i32 noundef %38, i32 noundef %39)
  %41 = load ptr, ptr %12, align 8
  store i32 %40, ptr %41, align 4
  %42 = load ptr, ptr %7, align 8
  %43 = load i32, ptr %15, align 4
  %44 = load i32, ptr %16, align 4
  %45 = call i32 @Gia_ManHashOr(ptr noundef %42, i32 noundef %43, i32 noundef %44)
  %46 = load ptr, ptr %11, align 8
  store i32 %45, ptr %46, align 4
  br label %84

47:                                               ; preds = %6
  %48 = load ptr, ptr %7, align 8
  %49 = load i32, ptr %8, align 4
  %50 = load i32, ptr %9, align 4
  %51 = call i32 @Gia_ManHashAnd(ptr noundef %48, i32 noundef %49, i32 noundef %50)
  store i32 %51, ptr %17, align 4
  %52 = load ptr, ptr %7, align 8
  %53 = load i32, ptr %8, align 4
  %54 = call i32 @Abc_LitNot(i32 noundef %53)
  %55 = load i32, ptr %9, align 4
  %56 = call i32 @Abc_LitNot(i32 noundef %55)
  %57 = call i32 @Gia_ManHashAnd(ptr noundef %52, i32 noundef %54, i32 noundef %56)
  store i32 %57, ptr %18, align 4
  %58 = load ptr, ptr %7, align 8
  %59 = load i32, ptr %17, align 4
  %60 = load i32, ptr %18, align 4
  %61 = call i32 @Gia_ManHashOr(ptr noundef %58, i32 noundef %59, i32 noundef %60)
  %62 = call i32 @Abc_LitNot(i32 noundef %61)
  store i32 %62, ptr %19, align 4
  %63 = load ptr, ptr %7, align 8
  %64 = load i32, ptr %10, align 4
  %65 = load i32, ptr %19, align 4
  %66 = call i32 @Gia_ManHashAnd(ptr noundef %63, i32 noundef %64, i32 noundef %65)
  store i32 %66, ptr %20, align 4
  %67 = load ptr, ptr %7, align 8
  %68 = load i32, ptr %10, align 4
  %69 = call i32 @Abc_LitNot(i32 noundef %68)
  %70 = load i32, ptr %19, align 4
  %71 = call i32 @Abc_LitNot(i32 noundef %70)
  %72 = call i32 @Gia_ManHashAnd(ptr noundef %67, i32 noundef %69, i32 noundef %71)
  store i32 %72, ptr %21, align 4
  %73 = load ptr, ptr %7, align 8
  %74 = load i32, ptr %20, align 4
  %75 = load i32, ptr %21, align 4
  %76 = call i32 @Gia_ManHashOr(ptr noundef %73, i32 noundef %74, i32 noundef %75)
  %77 = call i32 @Abc_LitNot(i32 noundef %76)
  %78 = load ptr, ptr %12, align 8
  store i32 %77, ptr %78, align 4
  %79 = load ptr, ptr %7, align 8
  %80 = load i32, ptr %17, align 4
  %81 = load i32, ptr %20, align 4
  %82 = call i32 @Gia_ManHashOr(ptr noundef %79, i32 noundef %80, i32 noundef %81)
  %83 = load ptr, ptr %11, align 8
  store i32 %82, ptr %83, align 4
  br label %84

84:                                               ; preds = %47, %24
  ret void
}