; Function Attrs: nounwind uwtable
define void @Cba_BlastFullAdder(ptr noundef %0, i32 noundef %1, i32 noundef %2, i32 noundef %3, ptr noundef writeonly captures(none) initializes((0, 4)) %4, ptr noundef writeonly captures(none) initializes((0, 4)) %5) local_unnamed_addr #0 {
  %7 = tail call i32 @Gia_ManHashAnd(ptr noundef %0, i32 noundef %1, i32 noundef %2) #20
  %8 = xor i32 %1, 1
  %9 = xor i32 %2, 1
  %10 = tail call i32 @Gia_ManHashAnd(ptr noundef %0, i32 noundef %8, i32 noundef %9) #20
  %11 = tail call i32 @Gia_ManHashOr(ptr noundef %0, i32 noundef %7, i32 noundef %10) #20
  %12 = xor i32 %11, 1
  %13 = tail call i32 @Gia_ManHashAnd(ptr noundef %0, i32 noundef %3, i32 noundef %12) #20
  %14 = xor i32 %3, 1
  %15 = tail call i32 @Gia_ManHashAnd(ptr noundef %0, i32 noundef %14, i32 noundef %11) #20
  %16 = tail call i32 @Gia_ManHashOr(ptr noundef %0, i32 noundef %13, i32 noundef %15) #20
  %17 = xor i32 %16, 1
  store i32 %17, ptr %5, align 4
  %18 = tail call i32 @Gia_ManHashOr(ptr noundef %0, i32 noundef %7, i32 noundef %13) #20
  store i32 %18, ptr %4, align 4
  ret void
}